target datalayout = "e-m:e-p270:32:32-p271:32:32-p272:64:64-i64:64-i128:128-f80:128-n8:16:32:64-S128"
target triple = "x86_64-pc-linux-gnu"

; Function Attrs: nounwind uwtable
define internal i32 @mbc_to_code(ptr noundef %0, ptr noundef %1) #0 {
  %3 = alloca i32, align 4
  %4 = alloca ptr, align 8
  %5 = alloca ptr, align 8
  %6 = alloca i32, align 4
  %7 = alloca i32, align 4
  %8 = alloca i32, align 4
  %9 = alloca i32, align 4
  %10 = alloca i32, align 4
  store ptr %0, ptr %4, align 8, !tbaa !4
  store ptr %1, ptr %5, align 8, !tbaa !4
  call void @llvm.lifetime.start.p0(i64 4, ptr %6) #4
  call void @llvm.lifetime.start.p0(i64 4, ptr %7) #4
  call void @llvm.lifetime.start.p0(i64 4, ptr %8) #4
  call void @llvm.lifetime.start.p0(i64 4, ptr %9) #4
  %11 = load ptr, ptr @OnigEncodingSJIS, align 8, !tbaa !12
  %12 = load ptr, ptr %4, align 8, !tbaa !4
  %13 = call i32 %11(ptr noundef %12)
  store i32 %13, ptr %8, align 4, !tbaa !10
  %14 = load ptr, ptr %4, align 8, !tbaa !4
  %15 = getelementptr inbounds nuw i8, ptr %14, i32 1
  store ptr %15, ptr %4, align 8, !tbaa !4
  %16 = load i8, ptr %14, align 1, !tbaa !9
  %17 = zext i8 %16 to i32
  store i32 %17, ptr %6, align 4, !tbaa !10
  %18 = load i32, ptr %6, align 4, !tbaa !10
  store i32 %18, ptr %9, align 4, !tbaa !10
  %19 = load i32, ptr %8, align 4, !tbaa !10
  %20 = icmp eq i32 %19, 1
  br i1 %20, label %21, label %23

21:                                               ; preds = %2
  %22 = load i32, ptr %9, align 4, !tbaa !10
  store i32 %22, ptr %3, align 4
  store i32 1, ptr %10, align 4
  br label %48

23:                                               ; preds = %2
  store i32 1, ptr %7, align 4, !tbaa !10
  br label %24

24:                                               ; preds = %43, %23
  %25 = load i32, ptr %7, align 4, !tbaa !10
  %26 = load i32, ptr %8, align 4, !tbaa !10
  %27 = icmp slt i32 %25, %26
  br i1 %27, label %28, label %46

28:                                               ; preds = %24
  %29 = load ptr, ptr %4, align 8, !tbaa !4
  %30 = load ptr, ptr %5, align 8, !tbaa !4
  %31 = icmp uge ptr %29, %30
  br i1 %31, label %32, label %33

32:                                               ; preds = %28
  br label %46

33:                                               ; preds = %28
  %34 = load ptr, ptr %4, align 8, !tbaa !4
  %35 = getelementptr inbounds nuw i8, ptr %34, i32 1
  store ptr %35, ptr %4, align 8, !tbaa !4
  %36 = load i8, ptr %34, align 1, !tbaa !9
  %37 = zext i8 %36 to i32
  store i32 %37, ptr %6, align 4, !tbaa !10
  %38 = load i32, ptr %9, align 4, !tbaa !10
  %39 = shl i32 %38, 8
  store i32 %39, ptr %9, align 4, !tbaa !10
  %40 = load i32, ptr %6, align 4, !tbaa !10
  %41 = load i32, ptr %9, align 4, !tbaa !10
  %42 = add i32 %41, %40
  store i32 %42, ptr %9, align 4, !tbaa !10
  br label %43

43:                                               ; preds = %33
  %44 = load i32, ptr %7, align 4, !tbaa !10
  %45 = add nsw i32 %44, 1
  store i32 %45, ptr %7, align 4, !tbaa !10
  br label %24, !llvm.loop !14

46:                                               ; preds = %32, %24
  %47 = load i32, ptr %9, align 4, !tbaa !10
  store i32 %47, ptr %3, align 4
  store i32 1, ptr %10, align 4
  br label %48

48:                                               ; preds = %46, %21
  call void @llvm.lifetime.end.p0(i64 4, ptr %9) #4
  call void @llvm.lifetime.end.p0(i64 4, ptr %8) #4
  call void @llvm.lifetime.end.p0(i64 4, ptr %7) #4
  call void @llvm.lifetime.end.p0(i64 4, ptr %6) #4
  %49 = load i32, ptr %3, align 4
  ret i32 %49
}