; Function Attrs: nounwind uwtable
define internal i32 @mbc_to_code(ptr noundef %0, ptr noundef readnone captures(address) %1) #2 {
  %3 = load ptr, ptr @OnigEncodingSJIS, align 8, !tbaa !9
  %4 = tail call i32 %3(ptr noundef %0) #8
  %5 = load i8, ptr %0, align 1, !tbaa !4
  %6 = zext i8 %5 to i32
  %7 = icmp eq i32 %4, 1
  br i1 %7, label %.loopexit, label %.preheader

.preheader:                                       ; preds = %2
  %.01719 = getelementptr inbounds nuw i8, ptr %0, i64 1
  %8 = icmp sgt i32 %4, 1
  %.not20 = icmp ult ptr %.01719, %1
  %or.cond21 = select i1 %8, i1 %.not20, i1 false
  br i1 %or.cond21, label %.lr.ph, label %.loopexit

.lr.ph:                                           ; preds = %.preheader, %.lr.ph
  %.01724 = phi ptr [ %.017, %.lr.ph ], [ %.01719, %.preheader ]
  %.023 = phi i32 [ %12, %.lr.ph ], [ %6, %.preheader ]
  %.01622 = phi i32 [ %13, %.lr.ph ], [ 1, %.preheader ]
  %9 = load i8, ptr %.01724, align 1, !tbaa !4
  %10 = zext i8 %9 to i32
  %11 = shl i32 %.023, 8
  %12 = or disjoint i32 %11, %10
  %13 = add nuw nsw i32 %.01622, 1
  %.017 = getelementptr inbounds nuw i8, ptr %.01724, i64 1
  %14 = icmp slt i32 %13, %4
  %.not = icmp ult ptr %.017, %1
  %or.cond = select i1 %14, i1 %.not, i1 false
  br i1 %or.cond, label %.lr.ph, label %.loopexit, !llvm.loop !13

.loopexit:                                        ; preds = %.lr.ph, %.preheader, %2
  %.015 = phi i32 [ %6, %2 ], [ %6, %.preheader ], [ %12, %.lr.ph ]
  ret i32 %.015
}